target datalayout = "e-m:e-p270:32:32-p271:32:32-p272:64:64-i64:64-i128:128-f80:128-n8:16:32:64-S128"
target triple = "x86_64-pc-linux-gnu"

%struct.PJconsts = type { ptr, ptr, ptr, ptr, ptr, ptr, ptr, ptr, ptr, ptr, ptr, ptr, i32, ptr, ptr, ptr, ptr, ptr, ptr, ptr, ptr, double, double, double, double, double, double, double, double, double, double, double, double, double, double, double, double, double, double, double, double, double, double, i32, i32, i32, i32, i32, i32, i32, i32, i32, i32, i32, ptr, ptr, ptr, ptr, ptr, ptr, double, double, double, double, double, double, double, double, double, double, double, i32, [7 x double], i32, ptr, ptr, double, double, i32, [4 x i8], %"class.std::shared_ptr", i8, double, i8, %"class.std::__cxx11::basic_string", %"class.std::__cxx11::basic_string", %"class.std::__cxx11::basic_string", i8, %"class.std::vector", i32, %"class.std::vector.3", i32, i8, i8, i8, ptr }
%"class.std::shared_ptr" = type { %"class.std::__shared_ptr" }
%"class.std::__shared_ptr" = type { ptr, %"class.std::__shared_count" }
%"class.std::__shared_count" = type { ptr }
%"class.std::__cxx11::basic_string" = type { %"struct.std::__cxx11::basic_string<char>::_Alloc_hider", i64, %union.anon }
%"struct.std::__cxx11::basic_string<char>::_Alloc_hider" = type { ptr }
%union.anon = type { i64, [8 x i8] }
%"class.std::vector" = type { %"struct.std::_Vector_base" }
%"struct.std::_Vector_base" = type { %"struct.std::_Vector_base<osgeo::proj::operation::GridDescription, std::allocator<osgeo::proj::operation::GridDescription>>::_Vector_impl" }
%"struct.std::_Vector_base<osgeo::proj::operation::GridDescription, std::allocator<osgeo::proj::operation::GridDescription>>::_Vector_impl" = type { %"struct.std::_Vector_base<osgeo::proj::operation::GridDescription, std::allocator<osgeo::proj::operation::GridDescription>>::_Vector_impl_data" }
%"struct.std::_Vector_base<osgeo::proj::operation::GridDescription, std::allocator<osgeo::proj::operation::GridDescription>>::_Vector_impl_data" = type { ptr, ptr, ptr }
%"class.std::vector.3" = type { %"struct.std::_Vector_base.4" }
%"struct.std::_Vector_base.4" = type { %"struct.std::_Vector_base<PJCoordOperation, std::allocator<PJCoordOperation>>::_Vector_impl" }
%"struct.std::_Vector_base<PJCoordOperation, std::allocator<PJCoordOperation>>::_Vector_impl" = type { %"struct.std::_Vector_base<PJCoordOperation, std::allocator<PJCoordOperation>>::_Vector_impl_data" }
%"struct.std::_Vector_base<PJCoordOperation, std::allocator<PJCoordOperation>>::_Vector_impl_data" = type { ptr, ptr, ptr }
%"struct.(anonymous namespace)::pj_lagrng" = type { double, double, double, double, double, double }
%struct.PJ_LP = type { double, double }
%struct.PJ_XY = type { double, double }

; Function Attrs: mustprogress uwtable
define internal { double, double } @_ZL16lagrng_s_forward5PJ_LPP8PJconsts(double %0, double %1, ptr noundef %2) #0 {
  %4 = alloca %struct.PJ_XY, align 8
  %5 = alloca %struct.PJ_LP, align 8
  %6 = alloca ptr, align 8
  %7 = alloca ptr, align 8
  %8 = alloca double, align 8
  %9 = alloca double, align 8
  %10 = alloca double, align 8
  %11 = alloca i32, align 4
  %12 = getelementptr inbounds nuw { double, double }, ptr %5, i32 0, i32 0
  store double %0, ptr %12, align 8
  %13 = getelementptr inbounds nuw { double, double }, ptr %5, i32 0, i32 1
  store double %1, ptr %13, align 8
  store ptr %2, ptr %6, align 8, !tbaa !3
  call void @llvm.memset.p0.i64(ptr align 8 %4, i8 0, i64 16, i1 false)
  call void @llvm.lifetime.start.p0(i64 8, ptr %7) #7
  %14 = load ptr, ptr %6, align 8, !tbaa !3
  %15 = getelementptr inbounds nuw %struct.PJconsts, ptr %14, i32 0, i32 11
  %16 = load ptr, ptr %15, align 8, !tbaa !43
  store ptr %16, ptr %7, align 8, !tbaa !41
  call void @llvm.lifetime.start.p0(i64 8, ptr %8) #7
  call void @llvm.lifetime.start.p0(i64 8, ptr %9) #7
  call void @llvm.lifetime.start.p0(i64 8, ptr %10) #7
  %17 = getelementptr inbounds nuw %struct.PJ_LP, ptr %5, i32 0, i32 1
  %18 = load double, ptr %17, align 8, !tbaa !61
  %19 = call double @sin(double noundef %18) #7, !tbaa !52
  store double %19, ptr %10, align 8, !tbaa !53
  %20 = load double, ptr %10, align 8, !tbaa !53
  %21 = call double @llvm.fabs.f64(double %20)
  %22 = fsub double %21, 1.000000e+00
  %23 = call double @llvm.fabs.f64(double %22)
  %24 = fcmp olt double %23, 1.000000e-10
  br i1 %24, label %25, label %32

25:                                               ; preds = %3
  %26 = getelementptr inbounds nuw %struct.PJ_XY, ptr %4, i32 0, i32 0
  store double 0.000000e+00, ptr %26, align 8, !tbaa !64
  %27 = getelementptr inbounds nuw %struct.PJ_LP, ptr %5, i32 0, i32 1
  %28 = load double, ptr %27, align 8, !tbaa !61
  %29 = fcmp olt double %28, 0.000000e+00
  %30 = select i1 %29, double -2.000000e+00, double 2.000000e+00
  %31 = getelementptr inbounds nuw %struct.PJ_XY, ptr %4, i32 0, i32 1
  store double %30, ptr %31, align 8, !tbaa !59
  br label %80

32:                                               ; preds = %3
  %33 = load ptr, ptr %7, align 8, !tbaa !41
  %34 = getelementptr inbounds nuw %"struct.(anonymous namespace)::pj_lagrng", ptr %33, i32 0, i32 0
  %35 = load double, ptr %34, align 8, !tbaa !54
  %36 = load double, ptr %10, align 8, !tbaa !53
  %37 = fadd double 1.000000e+00, %36
  %38 = load double, ptr %10, align 8, !tbaa !53
  %39 = fsub double 1.000000e+00, %38
  %40 = fdiv double %37, %39
  %41 = load ptr, ptr %7, align 8, !tbaa !41
  %42 = getelementptr inbounds nuw %"struct.(anonymous namespace)::pj_lagrng", ptr %41, i32 0, i32 2
  %43 = load double, ptr %42, align 8, !tbaa !51
  %44 = call double @pow(double noundef %40, double noundef %43) #7, !tbaa !52
  %45 = fmul double %35, %44
  store double %45, ptr %8, align 8, !tbaa !53
  %46 = load ptr, ptr %7, align 8, !tbaa !41
  %47 = getelementptr inbounds nuw %"struct.(anonymous namespace)::pj_lagrng", ptr %46, i32 0, i32 4
  %48 = load double, ptr %47, align 8, !tbaa !50
  %49 = getelementptr inbounds nuw %struct.PJ_LP, ptr %5, i32 0, i32 0
  %50 = load double, ptr %49, align 8, !tbaa !63
  %51 = fmul double %50, %48
  store double %51, ptr %49, align 8, !tbaa !63
  %52 = load double, ptr %8, align 8, !tbaa !53
  %53 = load double, ptr %8, align 8, !tbaa !53
  %54 = fdiv double 1.000000e+00, %53
  %55 = fadd double %52, %54
  %56 = getelementptr inbounds nuw %struct.PJ_LP, ptr %5, i32 0, i32 0
  %57 = load double, ptr %56, align 8, !tbaa !63
  %58 = call double @cos(double noundef %57) #7, !tbaa !52
  %59 = call double @llvm.fmuladd.f64(double 5.000000e-01, double %55, double %58)
  store double %59, ptr %9, align 8, !tbaa !53
  %60 = load double, ptr %9, align 8, !tbaa !53
  %61 = fcmp olt double %60, 1.000000e-10
  br i1 %61, label %62, label %65

62:                                               ; preds = %32
  %63 = load ptr, ptr %6, align 8, !tbaa !3
  %64 = call i32 @proj_errno_set(ptr noundef %63, i32 noundef 2050)
  store i32 1, ptr %11, align 4
  br label %81

65:                                               ; preds = %32
  %66 = getelementptr inbounds nuw %struct.PJ_LP, ptr %5, i32 0, i32 0
  %67 = load double, ptr %66, align 8, !tbaa !63
  %68 = call double @sin(double noundef %67) #7, !tbaa !52
  %69 = fmul double 2.000000e+00, %68
  %70 = load double, ptr %9, align 8, !tbaa !53
  %71 = fdiv double %69, %70
  %72 = getelementptr inbounds nuw %struct.PJ_XY, ptr %4, i32 0, i32 0
  store double %71, ptr %72, align 8, !tbaa !64
  %73 = load double, ptr %8, align 8, !tbaa !53
  %74 = load double, ptr %8, align 8, !tbaa !53
  %75 = fdiv double 1.000000e+00, %74
  %76 = fsub double %73, %75
  %77 = load double, ptr %9, align 8, !tbaa !53
  %78 = fdiv double %76, %77
  %79 = getelementptr inbounds nuw %struct.PJ_XY, ptr %4, i32 0, i32 1
  store double %78, ptr %79, align 8, !tbaa !59
  br label %80

80:                                               ; preds = %65, %25
  store i32 1, ptr %11, align 4
  br label %81

81:                                               ; preds = %80, %62
  call void @llvm.lifetime.end.p0(i64 8, ptr %10) #7
  call void @llvm.lifetime.end.p0(i64 8, ptr %9) #7
  call void @llvm.lifetime.end.p0(i64 8, ptr %8) #7
  call void @llvm.lifetime.end.p0(i64 8, ptr %7) #7
  %82 = load { double, double }, ptr %4, align 8
  ret { double, double } %82
}