; Function Attrs: mustprogress uwtable
define internal { double, double } @_ZL16lagrng_s_forward5PJ_LPP8PJconsts(double %0, double %1, ptr noundef %2) #0 {
  %4 = getelementptr inbounds nuw i8, ptr %2, i64 88
  %5 = load ptr, ptr %4, align 8, !tbaa !40
  %6 = tail call double @sin(double noundef %1) #6, !tbaa !48
  %7 = tail call double @llvm.fabs.f64(double %6)
  %8 = fadd double %7, -1.000000e+00
  %9 = tail call double @llvm.fabs.f64(double %8)
  %10 = fcmp olt double %9, 1.000000e-10
  br i1 %10, label %11, label %14

11:                                               ; preds = %3
  %12 = fcmp olt double %1, 0.000000e+00
  %13 = select i1 %12, double -2.000000e+00, double 2.000000e+00
  br label %39

14:                                               ; preds = %3
  %15 = load double, ptr %5, align 8, !tbaa !49
  %16 = fadd double %6, 1.000000e+00
  %17 = fsub double 1.000000e+00, %6
  %18 = fdiv double %16, %17
  %19 = getelementptr inbounds nuw i8, ptr %5, i64 16
  %20 = load double, ptr %19, align 8, !tbaa !47
  %21 = tail call double @pow(double noundef %18, double noundef %20) #6, !tbaa !48
  %22 = fmul double %15, %21
  %23 = getelementptr inbounds nuw i8, ptr %5, i64 32
  %24 = load double, ptr %23, align 8, !tbaa !46
  %25 = fmul double %0, %24
  %26 = fdiv double 1.000000e+00, %22
  %27 = fadd double %22, %26
  %28 = tail call double @cos(double noundef %25) #6, !tbaa !48
  %29 = tail call double @llvm.fmuladd.f64(double %27, double 5.000000e-01, double %28)
  %30 = fcmp olt double %29, 1.000000e-10
  br i1 %30, label %31, label %33

31:                                               ; preds = %14
  %32 = tail call i32 @proj_errno_set(ptr noundef nonnull %2, i32 noundef 2050)
  br label %39

33:                                               ; preds = %14
  %34 = tail call double @sin(double noundef %25) #6, !tbaa !48
  %35 = fmul double %34, 2.000000e+00
  %36 = fdiv double %35, %29
  %37 = fsub double %22, %26
  %38 = fdiv double %37, %29
  br label %39

39:                                               ; preds = %11, %33, %31
  %.sroa.4.1 = phi double [ 0.000000e+00, %31 ], [ %13, %11 ], [ %38, %33 ]
  %.sroa.018.1 = phi double [ 0.000000e+00, %31 ], [ 0.000000e+00, %11 ], [ %36, %33 ]
  %.fca.0.insert = insertvalue { double, double } poison, double %.sroa.018.1, 0
  %.fca.1.insert = insertvalue { double, double } %.fca.0.insert, double %.sroa.4.1, 1
  ret { double, double } %.fca.1.insert
}